target datalayout = "e-m:e-p270:32:32-p271:32:32-p272:64:64-i64:64-i128:128-f80:128-n8:16:32:64-S128"
target triple = "x86_64-pc-linux-gnu"

@__const.ffio_copy_url_options.opts = private unnamed_addr constant [8 x ptr] [ptr @.str.1, ptr @.str.2, ptr @.str.3, ptr @.str.4, ptr @.str.5, ptr @.str.6, ptr @.str.7, ptr null], align 16

; Function Attrs: nounwind uwtable
define i32 @ffio_copy_url_options(ptr noundef %0, ptr noundef %1) #0 {
  %3 = alloca i32, align 4
  %4 = alloca ptr, align 8
  %5 = alloca ptr, align 8
  %6 = alloca [8 x ptr], align 16
  %7 = alloca ptr, align 8
  %8 = alloca ptr, align 8
  %9 = alloca i32, align 4
  %10 = alloca i32, align 4
  store ptr %0, ptr %4, align 8, !tbaa !14
  store ptr %1, ptr %5, align 8, !tbaa !89
  call void @llvm.lifetime.start.p0(i64 64, ptr %6) #12
  call void @llvm.memcpy.p0.p0.i64(ptr align 16 %6, ptr align 16 @__const.ffio_copy_url_options.opts, i64 64, i1 false)
  call void @llvm.lifetime.start.p0(i64 8, ptr %7) #12
  %11 = getelementptr inbounds [8 x ptr], ptr %6, i64 0, i64 0
  store ptr %11, ptr %7, align 8, !tbaa !70
  call void @llvm.lifetime.start.p0(i64 8, ptr %8) #12
  store ptr null, ptr %8, align 8, !tbaa !9
  call void @llvm.lifetime.start.p0(i64 4, ptr %9) #12
  store i32 0, ptr %9, align 4, !tbaa !11
  br label %12

12:                                               ; preds = %41, %2
  %13 = load ptr, ptr %7, align 8, !tbaa !70
  %14 = load ptr, ptr %13, align 8, !tbaa !9
  %15 = icmp ne ptr %14, null
  br i1 %15, label %16, label %44

16:                                               ; preds = %12
  %17 = load ptr, ptr %4, align 8, !tbaa !14
  %18 = load ptr, ptr %7, align 8, !tbaa !70
  %19 = load ptr, ptr %18, align 8, !tbaa !9
  %20 = call i32 @av_opt_get(ptr noundef %17, ptr noundef %19, i32 noundef 1, ptr noundef %8)
  %21 = icmp sge i32 %20, 0
  br i1 %21, label %22, label %41

22:                                               ; preds = %16
  %23 = load ptr, ptr %8, align 8, !tbaa !9
  %24 = getelementptr inbounds i8, ptr %23, i64 0
  %25 = load i8, ptr %24, align 1, !tbaa !50
  %26 = zext i8 %25 to i32
  %27 = icmp ne i32 %26, 0
  br i1 %27, label %28, label %39

28:                                               ; preds = %22
  %29 = load ptr, ptr %5, align 8, !tbaa !89
  %30 = load ptr, ptr %7, align 8, !tbaa !70
  %31 = load ptr, ptr %30, align 8, !tbaa !9
  %32 = load ptr, ptr %8, align 8, !tbaa !9
  %33 = call i32 @av_dict_set(ptr noundef %29, ptr noundef %31, ptr noundef %32, i32 noundef 8)
  store i32 %33, ptr %9, align 4, !tbaa !11
  %34 = load i32, ptr %9, align 4, !tbaa !11
  %35 = icmp slt i32 %34, 0
  br i1 %35, label %36, label %38

36:                                               ; preds = %28
  %37 = load i32, ptr %9, align 4, !tbaa !11
  store i32 %37, ptr %3, align 4
  store i32 1, ptr %10, align 4
  br label %46

38:                                               ; preds = %28
  br label %40

39:                                               ; preds = %22
  call void @av_freep(ptr noundef %8)
  br label %40

40:                                               ; preds = %39, %38
  br label %41

41:                                               ; preds = %40, %16
  %42 = load ptr, ptr %7, align 8, !tbaa !70
  %43 = getelementptr inbounds nuw ptr, ptr %42, i32 1
  store ptr %43, ptr %7, align 8, !tbaa !70
  br label %12, !llvm.loop !91

44:                                               ; preds = %12
  %45 = load i32, ptr %9, align 4, !tbaa !11
  store i32 %45, ptr %3, align 4
  store i32 1, ptr %10, align 4
  br label %46

46:                                               ; preds = %44, %36
  call void @llvm.lifetime.end.p0(i64 4, ptr %9) #12
  call void @llvm.lifetime.end.p0(i64 8, ptr %8) #12
  call void @llvm.lifetime.end.p0(i64 8, ptr %7) #12
  call void @llvm.lifetime.end.p0(i64 64, ptr %6) #12
  %47 = load i32, ptr %3, align 4
  ret i32 %47
}