; Function Attrs: nounwind uwtable
define i32 @ffio_copy_url_options(ptr noundef %0, ptr noundef %1) local_unnamed_addr #3 {
  %3 = alloca ptr, align 8
  call void @llvm.lifetime.start.p0(i64 8, ptr nonnull %3) #14
  store ptr null, ptr %3, align 8, !tbaa !54
  br label %4

4:                                                ; preds = %2, %15
  %5 = phi ptr [ @.str.1, %2 ], [ %17, %15 ]
  %.016 = phi i32 [ 0, %2 ], [ %.1, %15 ]
  %.0915 = phi ptr [ @__const.ffio_copy_url_options.opts, %2 ], [ %16, %15 ]
  %6 = call i32 @av_opt_get(ptr noundef %0, ptr noundef nonnull %5, i32 noundef 1, ptr noundef nonnull %3) #14
  %7 = icmp sgt i32 %6, -1
  br i1 %7, label %8, label %15

8:                                                ; preds = %4
  %9 = load ptr, ptr %3, align 8, !tbaa !54
  %10 = load i8, ptr %9, align 1, !tbaa !33
  %.not14 = icmp eq i8 %10, 0
  br i1 %.not14, label %14, label %11

11:                                               ; preds = %8
  %12 = call i32 @av_dict_set(ptr noundef %1, ptr noundef nonnull %5, ptr noundef nonnull %9, i32 noundef 8) #14
  %13 = icmp slt i32 %12, 0
  br i1 %13, label %18, label %15

14:                                               ; preds = %8
  call void @av_freep(ptr noundef nonnull %3) #14
  br label %15

15:                                               ; preds = %14, %11, %4
  %.1 = phi i32 [ %12, %11 ], [ %.016, %14 ], [ %.016, %4 ]
  %16 = getelementptr inbounds nuw i8, ptr %.0915, i64 8
  %17 = load ptr, ptr %16, align 8, !tbaa !54
  %.not = icmp eq ptr %17, null
  br i1 %.not, label %18, label %4, !llvm.loop !70

18:                                               ; preds = %15, %11
  %.010 = phi i32 [ %12, %11 ], [ %.1, %15 ]
  call void @llvm.lifetime.end.p0(i64 8, ptr nonnull %3) #14
  ret i32 %.010
}